target datalayout = "e-m:e-p270:32:32-p271:32:32-p272:64:64-i64:64-i128:128-f80:128-n8:16:32:64-S128"
target triple = "x86_64-pc-linux-gnu"

@.str = private unnamed_addr constant [138 x i8] c"generated/home/dtcxzyw/WorkSpace/Projects/compilers/llvm-opt-benchmark/bench/libquic/libquic/boringssl/crypto/cipher/e_chacha20poly1305.c\00", align 1

; Function Attrs: nounwind uwtable
define internal i32 @aead_chacha20_poly1305_old_open(ptr noundef %0, ptr noundef %1, ptr noundef %2, i64 noundef %3, ptr noundef %4, i64 noundef %5, ptr noundef %6, i64 noundef %7, ptr noundef %8, i64 noundef %9) #0 {
  %11 = alloca i32, align 4
  %12 = alloca ptr, align 8
  %13 = alloca ptr, align 8
  %14 = alloca ptr, align 8
  %15 = alloca i64, align 8
  %16 = alloca ptr, align 8
  %17 = alloca i64, align 8
  %18 = alloca ptr, align 8
  %19 = alloca i64, align 8
  %20 = alloca ptr, align 8
  %21 = alloca i64, align 8
  %22 = alloca [12 x i8], align 1
  store ptr %0, ptr %12, align 8, !tbaa !6
  store ptr %1, ptr %13, align 8, !tbaa !11
  store ptr %2, ptr %14, align 8, !tbaa !22
  store i64 %3, ptr %15, align 8, !tbaa !13
  store ptr %4, ptr %16, align 8, !tbaa !11
  store i64 %5, ptr %17, align 8, !tbaa !13
  store ptr %6, ptr %18, align 8, !tbaa !11
  store i64 %7, ptr %19, align 8, !tbaa !13
  store ptr %8, ptr %20, align 8, !tbaa !11
  store i64 %9, ptr %21, align 8, !tbaa !13
  %23 = load i64, ptr %17, align 8, !tbaa !13
  %24 = icmp ne i64 %23, 8
  br i1 %24, label %25, label %26

25:                                               ; preds = %10
  call void @ERR_put_error(i32 noundef 30, i32 noundef 0, i32 noundef 121, ptr noundef @.str, i32 noundef 276)
  store i32 0, ptr %11, align 4
  br label %41

26:                                               ; preds = %10
  call void @llvm.lifetime.start.p0(i64 12, ptr %22) #7
  %27 = getelementptr inbounds [12 x i8], ptr %22, i64 0, i64 0
  call void @llvm.memset.p0.i64(ptr align 1 %27, i8 0, i64 4, i1 false)
  %28 = getelementptr inbounds [12 x i8], ptr %22, i64 0, i64 0
  %29 = getelementptr inbounds i8, ptr %28, i64 4
  %30 = load ptr, ptr %16, align 8, !tbaa !11
  call void @llvm.memcpy.p0.p0.i64(ptr align 1 %29, ptr align 1 %30, i64 8, i1 false)
  %31 = load ptr, ptr %12, align 8, !tbaa !6
  %32 = load ptr, ptr %13, align 8, !tbaa !11
  %33 = load ptr, ptr %14, align 8, !tbaa !22
  %34 = load i64, ptr %15, align 8, !tbaa !13
  %35 = getelementptr inbounds [12 x i8], ptr %22, i64 0, i64 0
  %36 = load ptr, ptr %18, align 8, !tbaa !11
  %37 = load i64, ptr %19, align 8, !tbaa !13
  %38 = load ptr, ptr %20, align 8, !tbaa !11
  %39 = load i64, ptr %21, align 8, !tbaa !13
  %40 = call i32 @open_impl(ptr noundef @poly1305_update_old, ptr noundef %31, ptr noundef %32, ptr noundef %33, i64 noundef %34, ptr noundef %35, ptr noundef %36, i64 noundef %37, ptr noundef %38, i64 noundef %39)
  store i32 %40, ptr %11, align 4
  call void @llvm.lifetime.end.p0(i64 12, ptr %22) #7
  br label %41

41:                                               ; preds = %26, %25
  %42 = load i32, ptr %11, align 4
  ret i32 %42
}